target datalayout = "e-m:e-p270:32:32-p271:32:32-p272:64:64-i64:64-i128:128-f80:128-n8:16:32:64-S128"
target triple = "x86_64-pc-linux-gnu"

%struct.Abc_TtStore_t = type { i32, i32, i32, ptr }

; Function Attrs: nounwind uwtable
define void @sortAndUnique(ptr noundef %0, ptr noundef %1) #0 {
  %3 = alloca ptr, align 8
  %4 = alloca ptr, align 8
  %5 = alloca i32, align 4
  %6 = alloca i32, align 4
  %7 = alloca i32, align 4
  %8 = alloca ptr, align 8
  store ptr %0, ptr %3, align 8, !tbaa !19
  store ptr %1, ptr %4, align 8, !tbaa !14
  call void @llvm.lifetime.start.p0(i64 4, ptr %5) #7
  call void @llvm.lifetime.start.p0(i64 4, ptr %6) #7
  store i32 1, ptr %6, align 4, !tbaa !8
  call void @llvm.lifetime.start.p0(i64 4, ptr %7) #7
  %9 = load ptr, ptr %4, align 8, !tbaa !14
  %10 = getelementptr inbounds nuw %struct.Abc_TtStore_t, ptr %9, i32 0, i32 2
  %11 = load i32, ptr %10, align 8, !tbaa !15
  store i32 %11, ptr %7, align 4, !tbaa !8
  call void @llvm.lifetime.start.p0(i64 8, ptr %8) #7
  %12 = load ptr, ptr %3, align 8, !tbaa !19
  %13 = load i32, ptr %7, align 4, !tbaa !8
  %14 = sext i32 %13 to i64
  call void @qsort(ptr noundef %12, i64 noundef %14, i64 noundef 8, ptr noundef @compareWords3)
  %15 = load ptr, ptr %3, align 8, !tbaa !19
  %16 = getelementptr inbounds ptr, ptr %15, i64 0
  %17 = load ptr, ptr %16, align 8, !tbaa !3
  store ptr %17, ptr %8, align 8, !tbaa !3
  store i32 1, ptr %5, align 4, !tbaa !8
  br label %18

18:                                               ; preds = %54, %2
  %19 = load i32, ptr %5, align 4, !tbaa !8
  %20 = load i32, ptr %7, align 4, !tbaa !8
  %21 = icmp slt i32 %19, %20
  br i1 %21, label %22, label %57

22:                                               ; preds = %18
  %23 = load ptr, ptr %3, align 8, !tbaa !19
  %24 = load i32, ptr %5, align 4, !tbaa !8
  %25 = sext i32 %24 to i64
  %26 = getelementptr inbounds ptr, ptr %23, i64 %25
  %27 = load ptr, ptr %26, align 8, !tbaa !3
  %28 = load ptr, ptr %8, align 8, !tbaa !3
  %29 = load ptr, ptr %4, align 8, !tbaa !14
  %30 = getelementptr inbounds nuw %struct.Abc_TtStore_t, ptr %29, i32 0, i32 1
  %31 = load i32, ptr %30, align 4, !tbaa !20
  %32 = sext i32 %31 to i64
  %33 = mul i64 8, %32
  %34 = call i32 @memcmp(ptr noundef %27, ptr noundef %28, i64 noundef %33) #8
  %35 = icmp ne i32 %34, 0
  br i1 %35, label %36, label %53

36:                                               ; preds = %22
  %37 = load ptr, ptr %3, align 8, !tbaa !19
  %38 = load i32, ptr %5, align 4, !tbaa !8
  %39 = sext i32 %38 to i64
  %40 = getelementptr inbounds ptr, ptr %37, i64 %39
  %41 = load ptr, ptr %40, align 8, !tbaa !3
  %42 = load ptr, ptr %3, align 8, !tbaa !19
  %43 = load i32, ptr %6, align 4, !tbaa !8
  %44 = sext i32 %43 to i64
  %45 = getelementptr inbounds ptr, ptr %42, i64 %44
  store ptr %41, ptr %45, align 8, !tbaa !3
  %46 = load ptr, ptr %3, align 8, !tbaa !19
  %47 = load i32, ptr %5, align 4, !tbaa !8
  %48 = sext i32 %47 to i64
  %49 = getelementptr inbounds ptr, ptr %46, i64 %48
  %50 = load ptr, ptr %49, align 8, !tbaa !3
  store ptr %50, ptr %8, align 8, !tbaa !3
  %51 = load i32, ptr %6, align 4, !tbaa !8
  %52 = add nsw i32 %51, 1
  store i32 %52, ptr %6, align 4, !tbaa !8
  br label %53

53:                                               ; preds = %36, %22
  br label %54

54:                                               ; preds = %53
  %55 = load i32, ptr %5, align 4, !tbaa !8
  %56 = add nsw i32 %55, 1
  store i32 %56, ptr %5, align 4, !tbaa !8
  br label %18, !llvm.loop !21

57:                                               ; preds = %18
  %58 = load i32, ptr %6, align 4, !tbaa !8
  %59 = load ptr, ptr %4, align 8, !tbaa !14
  %60 = getelementptr inbounds nuw %struct.Abc_TtStore_t, ptr %59, i32 0, i32 2
  store i32 %58, ptr %60, align 8, !tbaa !15
  call void @llvm.lifetime.end.p0(i64 8, ptr %8) #7
  call void @llvm.lifetime.end.p0(i64 4, ptr %7) #7
  call void @llvm.lifetime.end.p0(i64 4, ptr %6) #7
  call void @llvm.lifetime.end.p0(i64 4, ptr %5) #7
  ret void
}