; Function Attrs: nofree nounwind uwtable
define void @sortAndUnique(ptr noundef %0, ptr noundef captures(none) %1) local_unnamed_addr #4 {
  %3 = getelementptr inbounds nuw i8, ptr %1, i64 8
  %4 = load i32, ptr %3, align 8, !tbaa !9
  %5 = sext i32 %4 to i64
  tail call void @qsort(ptr noundef %0, i64 noundef %5, i64 noundef 8, ptr noundef nonnull @compareWords3) #19
  %6 = icmp sgt i32 %4, 1
  br i1 %6, label %.lr.ph, label %._crit_edge

.lr.ph:                                           ; preds = %2
  %7 = load ptr, ptr %0, align 8, !tbaa !15
  %8 = getelementptr inbounds nuw i8, ptr %1, i64 4
  %9 = load i32, ptr %8, align 4, !tbaa !17
  %10 = sext i32 %9 to i64
  %11 = shl nsw i64 %10, 3
  %wide.trip.count = zext nneg i32 %4 to i64
  br label %12

12:                                               ; preds = %.lr.ph, %20
  %indvars.iv = phi i64 [ 1, %.lr.ph ], [ %indvars.iv.next, %20 ]
  %.024 = phi ptr [ %7, %.lr.ph ], [ %.1, %20 ]
  %.02022 = phi i32 [ 1, %.lr.ph ], [ %.121, %20 ]
  %13 = getelementptr inbounds nuw ptr, ptr %0, i64 %indvars.iv
  %14 = load ptr, ptr %13, align 8, !tbaa !15
  %bcmp = tail call i32 @bcmp(ptr %14, ptr %.024, i64 %11)
  %.not = icmp eq i32 %bcmp, 0
  br i1 %.not, label %20, label %15

15:                                               ; preds = %12
  %16 = sext i32 %.02022 to i64
  %17 = getelementptr inbounds ptr, ptr %0, i64 %16
  store ptr %14, ptr %17, align 8, !tbaa !15
  %18 = load ptr, ptr %13, align 8, !tbaa !15
  %19 = add nsw i32 %.02022, 1
  br label %20

20:                                               ; preds = %12, %15
  %.121 = phi i32 [ %19, %15 ], [ %.02022, %12 ]
  %.1 = phi ptr [ %18, %15 ], [ %.024, %12 ]
  %indvars.iv.next = add nuw nsw i64 %indvars.iv, 1
  %exitcond.not = icmp eq i64 %indvars.iv.next, %wide.trip.count
  br i1 %exitcond.not, label %._crit_edge, label %12, !llvm.loop !18

._crit_edge:                                      ; preds = %20, %2
  %.020.lcssa = phi i32 [ 1, %2 ], [ %.121, %20 ]
  store i32 %.020.lcssa, ptr %3, align 8, !tbaa !9
  ret void
}